target datalayout = "e-m:e-p270:32:32-p271:32:32-p272:64:64-i64:64-i128:128-f80:128-n8:16:32:64-S128"
target triple = "x86_64-pc-linux-gnu"

%struct.Ivy_Man_t_ = type { ptr, ptr, ptr, ptr, ptr, %struct.Ivy_Obj_t_, [8 x i32], i32, i32, ptr, i32, i32, i32, i32, ptr, i32, ptr, ptr, ptr, i32, ptr, ptr, ptr, i64, i64 }
%struct.Ivy_Obj_t_ = type { i32, i32, i32, i32, ptr, ptr, ptr, ptr, ptr, ptr, ptr, ptr }
%struct.Vec_Ptr_t_ = type { i32, i32, ptr }

@stdout = external global ptr, align 8
@.str.6 = private unnamed_addr constant [20 x i8] c" (cone of %s \22%d\22)\0A\00", align 1
@.str.7 = private unnamed_addr constant [6 x i8] c"latch\00", align 1
@.str.8 = private unnamed_addr constant [3 x i8] c"PO\00", align 1

; Function Attrs: inlinehint nounwind uwtable
define internal ptr @Ivy_Regular(ptr noundef %0) #1 {
  %2 = alloca ptr, align 8
  store ptr %0, ptr %2, align 8, !tbaa !8
  %3 = load ptr, ptr %2, align 8, !tbaa !8
  %4 = ptrtoint ptr %3 to i64
  %5 = and i64 %4, -2
  %6 = inttoptr i64 %5 to ptr
  ret ptr %6
}

; Function Attrs: inlinehint nounwind uwtable
define internal i32 @Ivy_ObjId(ptr noundef %0) #1 {
  %2 = alloca ptr, align 8
  store ptr %0, ptr %2, align 8, !tbaa !8
  %3 = load ptr, ptr %2, align 8, !tbaa !8
  %4 = getelementptr inbounds nuw %struct.Ivy_Obj_t_, ptr %3, i32 0, i32 0
  %5 = load i32, ptr %4, align 8, !tbaa !20
  ret i32 %5
}

; Function Attrs: inlinehint nounwind uwtable
define internal i32 @Ivy_ObjIsLatch(ptr noundef %0) #1 {
  %2 = alloca ptr, align 8
  store ptr %0, ptr %2, align 8, !tbaa !8
  %3 = load ptr, ptr %2, align 8, !tbaa !8
  %4 = getelementptr inbounds nuw %struct.Ivy_Obj_t_, ptr %3, i32 0, i32 2
  %5 = load i32, ptr %4, align 8
  %6 = and i32 %5, 15
  %7 = icmp eq i32 %6, 4
  %8 = zext i1 %7 to i32
  ret i32 %8
}

; Function Attrs: inlinehint nounwind uwtable
define internal ptr @Ivy_ObjFanin0(ptr noundef %0) #1 {
  %2 = alloca ptr, align 8
  store ptr %0, ptr %2, align 8, !tbaa !8
  %3 = load ptr, ptr %2, align 8, !tbaa !8
  %4 = getelementptr inbounds nuw %struct.Ivy_Obj_t_, ptr %3, i32 0, i32 4
  %5 = load ptr, ptr %4, align 8, !tbaa !21
  %6 = call ptr @Ivy_Regular(ptr noundef %5)
  ret ptr %6
}

; Function Attrs: inlinehint nounwind uwtable
define internal i32 @Ivy_ObjIsCo(ptr noundef %0) #1 {
  %2 = alloca ptr, align 8
  store ptr %0, ptr %2, align 8, !tbaa !8
  %3 = load ptr, ptr %2, align 8, !tbaa !8
  %4 = getelementptr inbounds nuw %struct.Ivy_Obj_t_, ptr %3, i32 0, i32 2
  %5 = load i32, ptr %4, align 8
  %6 = and i32 %5, 15
  %7 = icmp eq i32 %6, 2
  br i1 %7, label %14, label %8

8:                                                ; preds = %1
  %9 = load ptr, ptr %2, align 8, !tbaa !8
  %10 = getelementptr inbounds nuw %struct.Ivy_Obj_t_, ptr %9, i32 0, i32 2
  %11 = load i32, ptr %10, align 8
  %12 = and i32 %11, 15
  %13 = icmp eq i32 %12, 4
  br label %14

14:                                               ; preds = %8, %1
  %15 = phi i1 [ true, %1 ], [ %13, %8 ]
  %16 = zext i1 %15 to i32
  ret i32 %16
}

; Function Attrs: inlinehint nounwind uwtable
define internal ptr @Vec_PtrEntry(ptr noundef %0, i32 noundef %1) #1 {
  %3 = alloca ptr, align 8
  %4 = alloca i32, align 4
  store ptr %0, ptr %3, align 8, !tbaa !34
  store i32 %1, ptr %4, align 4, !tbaa !23
  %5 = load ptr, ptr %3, align 8, !tbaa !34
  %6 = getelementptr inbounds nuw %struct.Vec_Ptr_t_, ptr %5, i32 0, i32 2
  %7 = load ptr, ptr %6, align 8, !tbaa !37
  %8 = load i32, ptr %4, align 4, !tbaa !23
  %9 = sext i32 %8 to i64
  %10 = getelementptr inbounds ptr, ptr %7, i64 %9
  %11 = load ptr, ptr %10, align 8, !tbaa !38
  ret ptr %11
}

; Function Attrs: inlinehint nounwind uwtable
define internal i32 @Vec_PtrSize(ptr noundef %0) #1 {
  %2 = alloca ptr, align 8
  store ptr %0, ptr %2, align 8, !tbaa !34
  %3 = load ptr, ptr %2, align 8, !tbaa !34
  %4 = getelementptr inbounds nuw %struct.Vec_Ptr_t_, ptr %3, i32 0, i32 1
  %5 = load i32, ptr %4, align 4, !tbaa !35
  ret i32 %5
}

; Function Attrs: nounwind uwtable
define i32 @Ivy_ManIsAcyclic(ptr noundef %0) #0 {
  %2 = alloca ptr, align 8
  %3 = alloca ptr, align 8
  %4 = alloca i32, align 4
  %5 = alloca i32, align 4
  store ptr %0, ptr %2, align 8, !tbaa !3
  call void @llvm.lifetime.start.p0(i64 8, ptr %3) #8
  call void @llvm.lifetime.start.p0(i64 4, ptr %4) #8
  call void @llvm.lifetime.start.p0(i64 4, ptr %5) #8
  %6 = load ptr, ptr %2, align 8, !tbaa !3
  call void @Ivy_ManIncrementTravId(ptr noundef %6)
  %7 = load ptr, ptr %2, align 8, !tbaa !3
  call void @Ivy_ManIncrementTravId(ptr noundef %7)
  store i32 1, ptr %4, align 4, !tbaa !23
  store i32 0, ptr %5, align 4, !tbaa !23
  br label %8

8:                                                ; preds = %50, %1
  %9 = load i32, ptr %5, align 4, !tbaa !23
  %10 = load ptr, ptr %2, align 8, !tbaa !3
  %11 = getelementptr inbounds nuw %struct.Ivy_Man_t_, ptr %10, i32 0, i32 3
  %12 = load ptr, ptr %11, align 8, !tbaa !28
  %13 = call i32 @Vec_PtrSize(ptr noundef %12)
  %14 = icmp slt i32 %9, %13
  br i1 %14, label %15, label %21

15:                                               ; preds = %8
  %16 = load ptr, ptr %2, align 8, !tbaa !3
  %17 = getelementptr inbounds nuw %struct.Ivy_Man_t_, ptr %16, i32 0, i32 3
  %18 = load ptr, ptr %17, align 8, !tbaa !28
  %19 = load i32, ptr %5, align 4, !tbaa !23
  %20 = call ptr @Vec_PtrEntry(ptr noundef %18, i32 noundef %19)
  store ptr %20, ptr %3, align 8, !tbaa !8
  br label %21

21:                                               ; preds = %15, %8
  %22 = phi i1 [ false, %8 ], [ true, %15 ]
  br i1 %22, label %23, label %53

23:                                               ; preds = %21
  %24 = load ptr, ptr %3, align 8, !tbaa !8
  %25 = icmp eq ptr %24, null
  br i1 %25, label %26, label %27

26:                                               ; preds = %23
  br label %49

27:                                               ; preds = %23
  %28 = load ptr, ptr %3, align 8, !tbaa !8
  %29 = call i32 @Ivy_ObjIsCo(ptr noundef %28)
  %30 = icmp ne i32 %29, 0
  br i1 %30, label %32, label %31

31:                                               ; preds = %27
  br label %48

32:                                               ; preds = %27
  %33 = load ptr, ptr %2, align 8, !tbaa !3
  %34 = load ptr, ptr %3, align 8, !tbaa !8
  %35 = call ptr @Ivy_ObjFanin0(ptr noundef %34)
  %36 = call i32 @Ivy_ManIsAcyclic_rec(ptr noundef %33, ptr noundef %35)
  store i32 %36, ptr %4, align 4, !tbaa !23
  %37 = icmp ne i32 %36, 0
  br i1 %37, label %38, label %39

38:                                               ; preds = %32
  br label %50

39:                                               ; preds = %32
  %40 = load ptr, ptr @stdout, align 8, !tbaa !63
  %41 = load ptr, ptr %3, align 8, !tbaa !8
  %42 = call i32 @Ivy_ObjIsLatch(ptr noundef %41)
  %43 = icmp ne i32 %42, 0
  %44 = select i1 %43, ptr @.str.7, ptr @.str.8
  %45 = load ptr, ptr %3, align 8, !tbaa !8
  %46 = call i32 @Ivy_ObjId(ptr noundef %45)
  %47 = call i32 (ptr, ptr, ...) @fprintf(ptr noundef %40, ptr noundef @.str.6, ptr noundef %44, i32 noundef %46) #8
  br label %53

48:                                               ; preds = %31
  br label %49

49:                                               ; preds = %48, %26
  br label %50

50:                                               ; preds = %49, %38
  %51 = load i32, ptr %5, align 4, !tbaa !23
  %52 = add nsw i32 %51, 1
  store i32 %52, ptr %5, align 4, !tbaa !23
  br label %8, !llvm.loop !70

53:                                               ; preds = %39, %21
  %54 = load i32, ptr %4, align 4, !tbaa !23
  call void @llvm.lifetime.end.p0(i64 4, ptr %5) #8
  call void @llvm.lifetime.end.p0(i64 4, ptr %4) #8
  call void @llvm.lifetime.end.p0(i64 8, ptr %3) #8
  ret i32 %54
}