; Function Attrs: nounwind uwtable
define range(i32 0, 2) i32 @Ivy_ManIsAcyclic(ptr noundef %0) local_unnamed_addr #0 {
  tail call void @Ivy_ManIncrementTravId(ptr noundef %0) #15
  tail call void @Ivy_ManIncrementTravId(ptr noundef %0) #15
  %2 = getelementptr inbounds nuw i8, ptr %0, i64 24
  %3 = load ptr, ptr %2, align 8, !tbaa !28
  %4 = getelementptr i8, ptr %3, i64 4
  %.val1928 = load i32, ptr %4, align 4, !tbaa !26
  %5 = icmp sgt i32 %.val1928, 0
  br i1 %5, label %.lr.ph, label %.critedge

.lr.ph:                                           ; preds = %1, %26
  %6 = phi ptr [ %27, %26 ], [ %3, %1 ]
  %indvars.iv = phi i64 [ %indvars.iv.next, %26 ], [ 0, %1 ]
  %7 = getelementptr i8, ptr %6, i64 8
  %.val20 = load ptr, ptr %7, align 8, !tbaa !29
  %8 = getelementptr inbounds nuw ptr, ptr %.val20, i64 %indvars.iv
  %9 = load ptr, ptr %8, align 8, !tbaa !30
  %10 = icmp eq ptr %9, null
  br i1 %10, label %26, label %11

11:                                               ; preds = %.lr.ph
  %12 = getelementptr i8, ptr %9, i64 8
  %.val23 = load i32, ptr %12, align 8
  %13 = and i32 %.val23, 15
  switch i32 %13, label %26 [
    i32 4, label %14
    i32 2, label %14
  ]

14:                                               ; preds = %11, %11
  %15 = getelementptr i8, ptr %9, i64 16
  %.val = load ptr, ptr %15, align 8, !tbaa !18
  %16 = ptrtoint ptr %.val to i64
  %17 = and i64 %16, -2
  %18 = inttoptr i64 %17 to ptr
  %19 = tail call i32 @Ivy_ManIsAcyclic_rec(ptr noundef nonnull %0, ptr noundef %18)
  %.not17 = icmp eq i32 %19, 0
  br i1 %.not17, label %20, label %._crit_edge

._crit_edge:                                      ; preds = %14
  %.pre = load ptr, ptr %2, align 8, !tbaa !28
  br label %26

20:                                               ; preds = %14
  %21 = getelementptr i8, ptr %9, i64 8
  %22 = load ptr, ptr @stdout, align 8, !tbaa !56
  %.val21 = load i32, ptr %21, align 8
  %23 = and i32 %.val21, 15
  %.not = icmp eq i32 %23, 4
  %24 = select i1 %.not, ptr @.str.7, ptr @.str.8
  %.val22 = load i32, ptr %9, align 8, !tbaa !3
  %25 = tail call i32 (ptr, ptr, ...) @fprintf(ptr noundef %22, ptr noundef nonnull @.str.6, ptr noundef nonnull %24, i32 noundef %.val22) #15
  br label %.critedge

26:                                               ; preds = %._crit_edge, %11, %.lr.ph
  %27 = phi ptr [ %.pre, %._crit_edge ], [ %6, %11 ], [ %6, %.lr.ph ]
  %indvars.iv.next = add nuw nsw i64 %indvars.iv, 1
  %28 = getelementptr i8, ptr %27, i64 4
  %.val19 = load i32, ptr %28, align 4, !tbaa !26
  %29 = sext i32 %.val19 to i64
  %30 = icmp slt i64 %indvars.iv.next, %29
  br i1 %30, label %.lr.ph, label %.critedge, !llvm.loop !61

.critedge:                                        ; preds = %26, %1, %20
  %.1 = phi i32 [ 0, %20 ], [ 1, %1 ], [ 1, %26 ]
  ret i32 %.1
}